; Function Attrs: mustprogress nofree norecurse nosync nounwind willreturn memory(read, inaccessiblemem: none) uwtable
define hidden noundef i32 @_ZNK13defined_names13get_num_namesEv(ptr noundef nonnull readonly align 8 captures(none) dereferenceable(16) %0) local_unnamed_addr #10 align 2 {
  %2 = load ptr, ptr %0, align 8, !tbaa !225
  %3 = getelementptr inbounds nuw i8, ptr %2, i64 96
  %4 = load ptr, ptr %3, align 8, !tbaa !20
  %5 = icmp eq ptr %4, null
  br i1 %5, label %_ZNK13defined_names4impl13get_num_namesEv.exit, label %6

6:                                                ; preds = %1
  %7 = getelementptr inbounds i8, ptr %4, i64 -4
  %8 = load i32, ptr %7, align 4, !tbaa !30
  br label %_ZNK13defined_names4impl13get_num_namesEv.exit

_ZNK13defined_names4impl13get_num_namesEv.exit:   ; preds = %1, %6
  %.0.i.i.i = phi i32 [ %8, %6 ], [ 0, %1 ]
  %9 = getelementptr inbounds nuw i8, ptr %0, i64 8
  %10 = load ptr, ptr %9, align 8, !tbaa !229
  %11 = getelementptr inbounds nuw i8, ptr %10, i64 96
  %12 = load ptr, ptr %11, align 8, !tbaa !20
  %13 = icmp eq ptr %12, null
  br i1 %13, label %_ZNK13defined_names4impl13get_num_namesEv.exit2, label %14

14:                                               ; preds = %_ZNK13defined_names4impl13get_num_namesEv.exit
  %15 = getelementptr inbounds i8, ptr %12, i64 -4
  %16 = load i32, ptr %15, align 4, !tbaa !30
  br label %_ZNK13defined_names4impl13get_num_namesEv.exit2

_ZNK13defined_names4impl13get_num_namesEv.exit2:  ; preds = %_ZNK13defined_names4impl13get_num_namesEv.exit, %14
  %.0.i.i.i1 = phi i32 [ %16, %14 ], [ 0, %_ZNK13defined_names4impl13get_num_namesEv.exit ]
  %17 = add i32 %.0.i.i.i1, %.0.i.i.i
  ret i32 %17
}